; Function Attrs: mustprogress nofree norecurse nosync nounwind willreturn memory(argmem: readwrite) uwtable
define dso_local noundef ptr @list_truncate(ptr noundef captures(address_is_null, ret: address, provenance) %0, i32 noundef %1) local_unnamed_addr #2 {
  %3 = icmp slt i32 %1, 1
  %.not.i = icmp eq ptr %0, null
  %or.cond = or i1 %.not.i, %3
  br i1 %or.cond, label %list_length.exit.thread, label %list_length.exit

list_length.exit:                                 ; preds = %2
  %4 = getelementptr inbounds nuw i8, ptr %0, i64 4
  %5 = load i32, ptr %4, align 4
  %6 = icmp slt i32 %1, %5
  br i1 %6, label %7, label %list_length.exit.thread

7:                                                ; preds = %list_length.exit
  store i32 %1, ptr %4, align 4
  br label %list_length.exit.thread

list_length.exit.thread:                          ; preds = %list_length.exit, %7, %2
  %.0 = phi ptr [ null, %2 ], [ %0, %7 ], [ %0, %list_length.exit ]
  ret ptr %.0
}